; Function Attrs: nounwind uwtable
define dso_local ptr @Curl_checkProxyheaders(ptr noundef readonly captures(none) %0, ptr noundef readonly captures(none) %1, ptr noundef %2, i64 noundef %3) local_unnamed_addr #0 {
  %5 = getelementptr inbounds nuw i8, ptr %1, i64 920
  %6 = load i64, ptr %5, align 8
  %7 = and i64 %6, 16
  %.not = icmp eq i64 %7, 0
  br i1 %.not, label %12, label %8

8:                                                ; preds = %4
  %9 = getelementptr inbounds nuw i8, ptr %0, i64 2562
  %10 = load i64, ptr %9, align 2
  %11 = and i64 %10, 4
  %.not16 = icmp eq i64 %11, 0
  br i1 %.not16, label %12, label %13

12:                                               ; preds = %8, %4
  br label %13

13:                                               ; preds = %8, %12
  %.sink = phi i64 [ 840, %12 ], [ 1696, %8 ]
  %14 = getelementptr inbounds nuw i8, ptr %0, i64 %.sink
  %.019 = load ptr, ptr %14, align 8, !tbaa !115
  %.not1720 = icmp eq ptr %.019, null
  br i1 %.not1720, label %._crit_edge, label %.lr.ph

.lr.ph:                                           ; preds = %13, %22
  %.021 = phi ptr [ %.0, %22 ], [ %.019, %13 ]
  %15 = load ptr, ptr %.021, align 8, !tbaa !116
  %16 = tail call i32 @curl_strnequal(ptr noundef %15, ptr noundef %2, i64 noundef %3) #11
  %.not18 = icmp eq i32 %16, 0
  br i1 %.not18, label %22, label %17

17:                                               ; preds = %.lr.ph
  %18 = load ptr, ptr %.021, align 8, !tbaa !116
  %19 = getelementptr inbounds nuw i8, ptr %18, i64 %3
  %20 = load i8, ptr %19, align 1, !tbaa !105
  %21 = and i8 %20, -2
  %switch = icmp eq i8 %21, 58
  br i1 %switch, label %._crit_edge, label %22

22:                                               ; preds = %17, %.lr.ph
  %23 = getelementptr inbounds nuw i8, ptr %.021, i64 8
  %.0 = load ptr, ptr %23, align 8, !tbaa !115
  %.not17 = icmp eq ptr %.0, null
  br i1 %.not17, label %._crit_edge, label %.lr.ph, !llvm.loop !118

._crit_edge:                                      ; preds = %22, %17, %13
  %.014 = phi ptr [ null, %13 ], [ %18, %17 ], [ null, %22 ]
  ret ptr %.014
}